target datalayout = "e-m:e-p270:32:32-p271:32:32-p272:64:64-i64:64-i128:128-f80:128-n8:16:32:64-S128"
target triple = "x86_64-pc-linux-gnu"

@hf_extended_diuc_dependent_ie_diuc_1 = internal global i32 0, align 4
@hf_extended_diuc_dependent_ie_length = internal global i32 0, align 4
@hf_extended_diuc_dependent_ie_channel_measurement = internal global i32 0, align 4
@hf_extended_diuc_dependent_ie_stc_zone = internal global i32 0, align 4
@hf_extended_diuc_dependent_ie_aas_dl = internal global i32 0, align 4
@hf_extended_diuc_dependent_ie_data_location = internal global i32 0, align 4
@hf_extended_diuc_dependent_ie_cid_switch = internal global i32 0, align 4
@hf_extended_diuc_dependent_ie_mimo_dl_basic = internal global i32 0, align 4
@hf_extended_diuc_dependent_ie_mimo_dl_enhanced = internal global i32 0, align 4
@hf_extended_diuc_dependent_ie_harq_map_pointer = internal global i32 0, align 4
@hf_extended_diuc_dependent_ie_phymod_dl = internal global i32 0, align 4
@hf_extended_diuc_dependent_ie_dl_pusc_burst_allocation = internal global i32 0, align 4
@hf_extended_diuc_dependent_ie_ul_interference_and_noise_level = internal global i32 0, align 4
@hf_extended_diuc_dependent_ie_unknown_diuc = internal global i32 0, align 4
@hf_extended_diuc_dependent_ie_diuc = internal global i32 0, align 4
@hf_extended_diuc_dependent_ie_length_1 = internal global i32 0, align 4

; Function Attrs: null_pointer_is_valid sspstrong uwtable
define hidden i32 @wimax_extended_diuc_dependent_ie_decoder(ptr noundef %0, ptr noundef %1, ptr noundef %2, i32 noundef %3, i32 noundef %4) #0 {
  %6 = alloca ptr, align 8
  %7 = alloca ptr, align 8
  %8 = alloca ptr, align 8
  %9 = alloca i32, align 4
  %10 = alloca i32, align 4
  %11 = alloca i32, align 4
  %12 = alloca i32, align 4
  %13 = alloca i8, align 1
  store ptr %0, ptr %6, align 8
  store ptr %1, ptr %7, align 8
  store ptr %2, ptr %8, align 8
  store i32 %3, ptr %9, align 4
  store i32 %4, ptr %10, align 4
  call void @llvm.lifetime.start.p0(i64 4, ptr %11) #3
  call void @llvm.lifetime.start.p0(i64 4, ptr %12) #3
  call void @llvm.lifetime.start.p0(i64 1, ptr %13) #3
  %14 = load ptr, ptr %8, align 8
  %15 = load i32, ptr %9, align 4
  %16 = call zeroext i8 @tvb_get_uint8(ptr noundef %14, i32 noundef %15)
  store i8 %16, ptr %13, align 1
  %17 = load i32, ptr %10, align 4
  %18 = and i32 %17, 1
  %19 = icmp ne i32 %18, 0
  br i1 %19, label %20, label %141

20:                                               ; preds = %5
  %21 = load i8, ptr %13, align 1
  %22 = zext i8 %21 to i32
  %23 = and i32 %22, 15
  store i32 %23, ptr %11, align 4
  %24 = load ptr, ptr %6, align 8
  %25 = load i32, ptr @hf_extended_diuc_dependent_ie_diuc_1, align 4
  %26 = load ptr, ptr %8, align 8
  %27 = load i32, ptr %9, align 4
  %28 = call ptr @proto_tree_add_item(ptr noundef %24, i32 noundef %25, ptr noundef %26, i32 noundef %27, i32 noundef 1, i32 noundef 0)
  %29 = load i32, ptr %9, align 4
  %30 = add i32 %29, 1
  store i32 %30, ptr %9, align 4
  %31 = load ptr, ptr %8, align 8
  %32 = load i32, ptr %9, align 4
  %33 = call zeroext i8 @tvb_get_uint8(ptr noundef %31, i32 noundef %32)
  store i8 %33, ptr %13, align 1
  %34 = load i8, ptr %13, align 1
  %35 = zext i8 %34 to i32
  %36 = and i32 %35, 240
  %37 = ashr i32 %36, 4
  store i32 %37, ptr %12, align 4
  %38 = load ptr, ptr %6, align 8
  %39 = load i32, ptr @hf_extended_diuc_dependent_ie_length, align 4
  %40 = load ptr, ptr %8, align 8
  %41 = load i32, ptr %9, align 4
  %42 = call ptr @proto_tree_add_item(ptr noundef %38, i32 noundef %39, ptr noundef %40, i32 noundef %41, i32 noundef 1, i32 noundef 0)
  %43 = load i32, ptr %11, align 4
  switch i32 %43, label %132 [
    i32 0, label %44
    i32 1, label %52
    i32 2, label %60
    i32 3, label %68
    i32 4, label %76
    i32 5, label %84
    i32 6, label %92
    i32 7, label %100
    i32 8, label %108
    i32 11, label %116
    i32 15, label %124
  ]

44:                                               ; preds = %20
  %45 = load ptr, ptr %6, align 8
  %46 = load i32, ptr @hf_extended_diuc_dependent_ie_channel_measurement, align 4
  %47 = load ptr, ptr %8, align 8
  %48 = load i32, ptr %9, align 4
  %49 = load i32, ptr %12, align 4
  %50 = add i32 %49, 1
  %51 = call ptr @proto_tree_add_item(ptr noundef %45, i32 noundef %46, ptr noundef %47, i32 noundef %48, i32 noundef %50, i32 noundef 0)
  br label %140

52:                                               ; preds = %20
  %53 = load ptr, ptr %6, align 8
  %54 = load i32, ptr @hf_extended_diuc_dependent_ie_stc_zone, align 4
  %55 = load ptr, ptr %8, align 8
  %56 = load i32, ptr %9, align 4
  %57 = load i32, ptr %12, align 4
  %58 = add i32 %57, 1
  %59 = call ptr @proto_tree_add_item(ptr noundef %53, i32 noundef %54, ptr noundef %55, i32 noundef %56, i32 noundef %58, i32 noundef 0)
  br label %140

60:                                               ; preds = %20
  %61 = load ptr, ptr %6, align 8
  %62 = load i32, ptr @hf_extended_diuc_dependent_ie_aas_dl, align 4
  %63 = load ptr, ptr %8, align 8
  %64 = load i32, ptr %9, align 4
  %65 = load i32, ptr %12, align 4
  %66 = add i32 %65, 1
  %67 = call ptr @proto_tree_add_item(ptr noundef %61, i32 noundef %62, ptr noundef %63, i32 noundef %64, i32 noundef %66, i32 noundef 0)
  br label %140

68:                                               ; preds = %20
  %69 = load ptr, ptr %6, align 8
  %70 = load i32, ptr @hf_extended_diuc_dependent_ie_data_location, align 4
  %71 = load ptr, ptr %8, align 8
  %72 = load i32, ptr %9, align 4
  %73 = load i32, ptr %12, align 4
  %74 = add i32 %73, 1
  %75 = call ptr @proto_tree_add_item(ptr noundef %69, i32 noundef %70, ptr noundef %71, i32 noundef %72, i32 noundef %74, i32 noundef 0)
  br label %140

76:                                               ; preds = %20
  %77 = load ptr, ptr %6, align 8
  %78 = load i32, ptr @hf_extended_diuc_dependent_ie_cid_switch, align 4
  %79 = load ptr, ptr %8, align 8
  %80 = load i32, ptr %9, align 4
  %81 = load i32, ptr %12, align 4
  %82 = add i32 %81, 1
  %83 = call ptr @proto_tree_add_item(ptr noundef %77, i32 noundef %78, ptr noundef %79, i32 noundef %80, i32 noundef %82, i32 noundef 0)
  br label %140

84:                                               ; preds = %20
  %85 = load ptr, ptr %6, align 8
  %86 = load i32, ptr @hf_extended_diuc_dependent_ie_mimo_dl_basic, align 4
  %87 = load ptr, ptr %8, align 8
  %88 = load i32, ptr %9, align 4
  %89 = load i32, ptr %12, align 4
  %90 = add i32 %89, 1
  %91 = call ptr @proto_tree_add_item(ptr noundef %85, i32 noundef %86, ptr noundef %87, i32 noundef %88, i32 noundef %90, i32 noundef 0)
  br label %140

92:                                               ; preds = %20
  %93 = load ptr, ptr %6, align 8
  %94 = load i32, ptr @hf_extended_diuc_dependent_ie_mimo_dl_enhanced, align 4
  %95 = load ptr, ptr %8, align 8
  %96 = load i32, ptr %9, align 4
  %97 = load i32, ptr %12, align 4
  %98 = add i32 %97, 1
  %99 = call ptr @proto_tree_add_item(ptr noundef %93, i32 noundef %94, ptr noundef %95, i32 noundef %96, i32 noundef %98, i32 noundef 0)
  br label %140

100:                                              ; preds = %20
  %101 = load ptr, ptr %6, align 8
  %102 = load i32, ptr @hf_extended_diuc_dependent_ie_harq_map_pointer, align 4
  %103 = load ptr, ptr %8, align 8
  %104 = load i32, ptr %9, align 4
  %105 = load i32, ptr %12, align 4
  %106 = add i32 %105, 1
  %107 = call ptr @proto_tree_add_item(ptr noundef %101, i32 noundef %102, ptr noundef %103, i32 noundef %104, i32 noundef %106, i32 noundef 0)
  br label %140

108:                                              ; preds = %20
  %109 = load ptr, ptr %6, align 8
  %110 = load i32, ptr @hf_extended_diuc_dependent_ie_phymod_dl, align 4
  %111 = load ptr, ptr %8, align 8
  %112 = load i32, ptr %9, align 4
  %113 = load i32, ptr %12, align 4
  %114 = add i32 %113, 1
  %115 = call ptr @proto_tree_add_item(ptr noundef %109, i32 noundef %110, ptr noundef %111, i32 noundef %112, i32 noundef %114, i32 noundef 0)
  br label %140

116:                                              ; preds = %20
  %117 = load ptr, ptr %6, align 8
  %118 = load i32, ptr @hf_extended_diuc_dependent_ie_dl_pusc_burst_allocation, align 4
  %119 = load ptr, ptr %8, align 8
  %120 = load i32, ptr %9, align 4
  %121 = load i32, ptr %12, align 4
  %122 = add i32 %121, 1
  %123 = call ptr @proto_tree_add_item(ptr noundef %117, i32 noundef %118, ptr noundef %119, i32 noundef %120, i32 noundef %122, i32 noundef 0)
  br label %140

124:                                              ; preds = %20
  %125 = load ptr, ptr %6, align 8
  %126 = load i32, ptr @hf_extended_diuc_dependent_ie_ul_interference_and_noise_level, align 4
  %127 = load ptr, ptr %8, align 8
  %128 = load i32, ptr %9, align 4
  %129 = load i32, ptr %12, align 4
  %130 = add i32 %129, 1
  %131 = call ptr @proto_tree_add_item(ptr noundef %125, i32 noundef %126, ptr noundef %127, i32 noundef %128, i32 noundef %130, i32 noundef 0)
  br label %140

132:                                              ; preds = %20
  %133 = load ptr, ptr %6, align 8
  %134 = load i32, ptr @hf_extended_diuc_dependent_ie_unknown_diuc, align 4
  %135 = load ptr, ptr %8, align 8
  %136 = load i32, ptr %9, align 4
  %137 = load i32, ptr %12, align 4
  %138 = add i32 %137, 1
  %139 = call ptr @proto_tree_add_item(ptr noundef %133, i32 noundef %134, ptr noundef %135, i32 noundef %136, i32 noundef %138, i32 noundef 0)
  br label %140

140:                                              ; preds = %132, %124, %116, %108, %100, %92, %84, %76, %68, %60, %52, %44
  br label %247

141:                                              ; preds = %5
  %142 = load i8, ptr %13, align 1
  %143 = zext i8 %142 to i32
  %144 = and i32 %143, 240
  %145 = ashr i32 %144, 4
  store i32 %145, ptr %11, align 4
  %146 = load i8, ptr %13, align 1
  %147 = zext i8 %146 to i32
  %148 = and i32 %147, 15
  store i32 %148, ptr %12, align 4
  %149 = load ptr, ptr %6, align 8
  %150 = load i32, ptr @hf_extended_diuc_dependent_ie_diuc, align 4
  %151 = load ptr, ptr %8, align 8
  %152 = load i32, ptr %9, align 4
  %153 = call ptr @proto_tree_add_item(ptr noundef %149, i32 noundef %150, ptr noundef %151, i32 noundef %152, i32 noundef 1, i32 noundef 0)
  %154 = load ptr, ptr %6, align 8
  %155 = load i32, ptr @hf_extended_diuc_dependent_ie_length_1, align 4
  %156 = load ptr, ptr %8, align 8
  %157 = load i32, ptr %9, align 4
  %158 = call ptr @proto_tree_add_item(ptr noundef %154, i32 noundef %155, ptr noundef %156, i32 noundef %157, i32 noundef 1, i32 noundef 0)
  %159 = load i32, ptr %9, align 4
  %160 = add i32 %159, 1
  store i32 %160, ptr %9, align 4
  %161 = load i32, ptr %11, align 4
  switch i32 %161, label %239 [
    i32 0, label %162
    i32 1, label %169
    i32 2, label %176
    i32 3, label %183
    i32 4, label %190
    i32 5, label %197
    i32 6, label %204
    i32 7, label %211
    i32 8, label %218
    i32 11, label %225
    i32 15, label %232
  ]

162:                                              ; preds = %141
  %163 = load ptr, ptr %6, align 8
  %164 = load i32, ptr @hf_extended_diuc_dependent_ie_channel_measurement, align 4
  %165 = load ptr, ptr %8, align 8
  %166 = load i32, ptr %9, align 4
  %167 = load i32, ptr %12, align 4
  %168 = call ptr @proto_tree_add_item(ptr noundef %163, i32 noundef %164, ptr noundef %165, i32 noundef %166, i32 noundef %167, i32 noundef 0)
  br label %246

169:                                              ; preds = %141
  %170 = load ptr, ptr %6, align 8
  %171 = load i32, ptr @hf_extended_diuc_dependent_ie_stc_zone, align 4
  %172 = load ptr, ptr %8, align 8
  %173 = load i32, ptr %9, align 4
  %174 = load i32, ptr %12, align 4
  %175 = call ptr @proto_tree_add_item(ptr noundef %170, i32 noundef %171, ptr noundef %172, i32 noundef %173, i32 noundef %174, i32 noundef 0)
  br label %246

176:                                              ; preds = %141
  %177 = load ptr, ptr %6, align 8
  %178 = load i32, ptr @hf_extended_diuc_dependent_ie_aas_dl, align 4
  %179 = load ptr, ptr %8, align 8
  %180 = load i32, ptr %9, align 4
  %181 = load i32, ptr %12, align 4
  %182 = call ptr @proto_tree_add_item(ptr noundef %177, i32 noundef %178, ptr noundef %179, i32 noundef %180, i32 noundef %181, i32 noundef 0)
  br label %246

183:                                              ; preds = %141
  %184 = load ptr, ptr %6, align 8
  %185 = load i32, ptr @hf_extended_diuc_dependent_ie_data_location, align 4
  %186 = load ptr, ptr %8, align 8
  %187 = load i32, ptr %9, align 4
  %188 = load i32, ptr %12, align 4
  %189 = call ptr @proto_tree_add_item(ptr noundef %184, i32 noundef %185, ptr noundef %186, i32 noundef %187, i32 noundef %188, i32 noundef 0)
  br label %246

190:                                              ; preds = %141
  %191 = load ptr, ptr %6, align 8
  %192 = load i32, ptr @hf_extended_diuc_dependent_ie_cid_switch, align 4
  %193 = load ptr, ptr %8, align 8
  %194 = load i32, ptr %9, align 4
  %195 = load i32, ptr %12, align 4
  %196 = call ptr @proto_tree_add_item(ptr noundef %191, i32 noundef %192, ptr noundef %193, i32 noundef %194, i32 noundef %195, i32 noundef 0)
  br label %246

197:                                              ; preds = %141
  %198 = load ptr, ptr %6, align 8
  %199 = load i32, ptr @hf_extended_diuc_dependent_ie_mimo_dl_basic, align 4
  %200 = load ptr, ptr %8, align 8
  %201 = load i32, ptr %9, align 4
  %202 = load i32, ptr %12, align 4
  %203 = call ptr @proto_tree_add_item(ptr noundef %198, i32 noundef %199, ptr noundef %200, i32 noundef %201, i32 noundef %202, i32 noundef 0)
  br label %246

204:                                              ; preds = %141
  %205 = load ptr, ptr %6, align 8
  %206 = load i32, ptr @hf_extended_diuc_dependent_ie_mimo_dl_enhanced, align 4
  %207 = load ptr, ptr %8, align 8
  %208 = load i32, ptr %9, align 4
  %209 = load i32, ptr %12, align 4
  %210 = call ptr @proto_tree_add_item(ptr noundef %205, i32 noundef %206, ptr noundef %207, i32 noundef %208, i32 noundef %209, i32 noundef 0)
  br label %246

211:                                              ; preds = %141
  %212 = load ptr, ptr %6, align 8
  %213 = load i32, ptr @hf_extended_diuc_dependent_ie_harq_map_pointer, align 4
  %214 = load ptr, ptr %8, align 8
  %215 = load i32, ptr %9, align 4
  %216 = load i32, ptr %12, align 4
  %217 = call ptr @proto_tree_add_item(ptr noundef %212, i32 noundef %213, ptr noundef %214, i32 noundef %215, i32 noundef %216, i32 noundef 0)
  br label %246

218:                                              ; preds = %141
  %219 = load ptr, ptr %6, align 8
  %220 = load i32, ptr @hf_extended_diuc_dependent_ie_phymod_dl, align 4
  %221 = load ptr, ptr %8, align 8
  %222 = load i32, ptr %9, align 4
  %223 = load i32, ptr %12, align 4
  %224 = call ptr @proto_tree_add_item(ptr noundef %219, i32 noundef %220, ptr noundef %221, i32 noundef %222, i32 noundef %223, i32 noundef 0)
  br label %246

225:                                              ; preds = %141
  %226 = load ptr, ptr %6, align 8
  %227 = load i32, ptr @hf_extended_diuc_dependent_ie_dl_pusc_burst_allocation, align 4
  %228 = load ptr, ptr %8, align 8
  %229 = load i32, ptr %9, align 4
  %230 = load i32, ptr %12, align 4
  %231 = call ptr @proto_tree_add_item(ptr noundef %226, i32 noundef %227, ptr noundef %228, i32 noundef %229, i32 noundef %230, i32 noundef 0)
  br label %246

232:                                              ; preds = %141
  %233 = load ptr, ptr %6, align 8
  %234 = load i32, ptr @hf_extended_diuc_dependent_ie_ul_interference_and_noise_level, align 4
  %235 = load ptr, ptr %8, align 8
  %236 = load i32, ptr %9, align 4
  %237 = load i32, ptr %12, align 4
  %238 = call ptr @proto_tree_add_item(ptr noundef %233, i32 noundef %234, ptr noundef %235, i32 noundef %236, i32 noundef %237, i32 noundef 0)
  br label %246

239:                                              ; preds = %141
  %240 = load ptr, ptr %6, align 8
  %241 = load i32, ptr @hf_extended_diuc_dependent_ie_unknown_diuc, align 4
  %242 = load ptr, ptr %8, align 8
  %243 = load i32, ptr %9, align 4
  %244 = load i32, ptr %12, align 4
  %245 = call ptr @proto_tree_add_item(ptr noundef %240, i32 noundef %241, ptr noundef %242, i32 noundef %243, i32 noundef %244, i32 noundef 0)
  br label %246

246:                                              ; preds = %239, %232, %225, %218, %211, %204, %197, %190, %183, %176, %169, %162
  br label %247

247:                                              ; preds = %246, %140
  %248 = load i32, ptr %12, align 4
  %249 = add i32 %248, 1
  %250 = mul i32 %249, 2
  call void @llvm.lifetime.end.p0(i64 1, ptr %13) #3
  call void @llvm.lifetime.end.p0(i64 4, ptr %12) #3
  call void @llvm.lifetime.end.p0(i64 4, ptr %11) #3
  ret i32 %250
}