; Function Attrs: null_pointer_is_valid sspstrong uwtable
define hidden range(i32 2, 33) i32 @wimax_extended_diuc_dependent_ie_decoder(ptr noundef %0, ptr readnone captures(none) %1, ptr noundef %2, i32 noundef %3, i32 noundef %4) local_unnamed_addr #0 {
  %6 = tail call zeroext i8 @tvb_get_uint8(ptr noundef %2, i32 noundef %3)
  %7 = and i32 %4, 1
  %.not = icmp eq i32 %7, 0
  br i1 %.not, label %55, label %8

8:                                                ; preds = %5
  %9 = and i8 %6, 15
  %10 = load i32, ptr @hf_extended_diuc_dependent_ie_diuc_1, align 4
  %11 = tail call ptr @proto_tree_add_item(ptr noundef %0, i32 noundef %10, ptr noundef %2, i32 noundef %3, i32 noundef 1, i32 noundef 0)
  %12 = add i32 %3, 1
  %13 = tail call zeroext i8 @tvb_get_uint8(ptr noundef %2, i32 noundef %12)
  %14 = lshr i8 %13, 4
  %15 = zext nneg i8 %14 to i32
  %16 = load i32, ptr @hf_extended_diuc_dependent_ie_length, align 4
  %17 = tail call ptr @proto_tree_add_item(ptr noundef %0, i32 noundef %16, ptr noundef %2, i32 noundef %12, i32 noundef 1, i32 noundef 0)
  %18 = add nuw nsw i32 %15, 1
  switch i8 %9, label %52 [
    i8 0, label %19
    i8 1, label %22
    i8 2, label %25
    i8 3, label %28
    i8 4, label %31
    i8 5, label %34
    i8 6, label %37
    i8 7, label %40
    i8 8, label %43
    i8 11, label %46
    i8 15, label %49
  ]

19:                                               ; preds = %8
  %20 = load i32, ptr @hf_extended_diuc_dependent_ie_channel_measurement, align 4
  %21 = tail call ptr @proto_tree_add_item(ptr noundef %0, i32 noundef %20, ptr noundef %2, i32 noundef %12, i32 noundef %18, i32 noundef 0)
  br label %100

22:                                               ; preds = %8
  %23 = load i32, ptr @hf_extended_diuc_dependent_ie_stc_zone, align 4
  %24 = tail call ptr @proto_tree_add_item(ptr noundef %0, i32 noundef %23, ptr noundef %2, i32 noundef %12, i32 noundef %18, i32 noundef 0)
  br label %100

25:                                               ; preds = %8
  %26 = load i32, ptr @hf_extended_diuc_dependent_ie_aas_dl, align 4
  %27 = tail call ptr @proto_tree_add_item(ptr noundef %0, i32 noundef %26, ptr noundef %2, i32 noundef %12, i32 noundef %18, i32 noundef 0)
  br label %100

28:                                               ; preds = %8
  %29 = load i32, ptr @hf_extended_diuc_dependent_ie_data_location, align 4
  %30 = tail call ptr @proto_tree_add_item(ptr noundef %0, i32 noundef %29, ptr noundef %2, i32 noundef %12, i32 noundef %18, i32 noundef 0)
  br label %100

31:                                               ; preds = %8
  %32 = load i32, ptr @hf_extended_diuc_dependent_ie_cid_switch, align 4
  %33 = tail call ptr @proto_tree_add_item(ptr noundef %0, i32 noundef %32, ptr noundef %2, i32 noundef %12, i32 noundef %18, i32 noundef 0)
  br label %100

34:                                               ; preds = %8
  %35 = load i32, ptr @hf_extended_diuc_dependent_ie_mimo_dl_basic, align 4
  %36 = tail call ptr @proto_tree_add_item(ptr noundef %0, i32 noundef %35, ptr noundef %2, i32 noundef %12, i32 noundef %18, i32 noundef 0)
  br label %100

37:                                               ; preds = %8
  %38 = load i32, ptr @hf_extended_diuc_dependent_ie_mimo_dl_enhanced, align 4
  %39 = tail call ptr @proto_tree_add_item(ptr noundef %0, i32 noundef %38, ptr noundef %2, i32 noundef %12, i32 noundef %18, i32 noundef 0)
  br label %100

40:                                               ; preds = %8
  %41 = load i32, ptr @hf_extended_diuc_dependent_ie_harq_map_pointer, align 4
  %42 = tail call ptr @proto_tree_add_item(ptr noundef %0, i32 noundef %41, ptr noundef %2, i32 noundef %12, i32 noundef %18, i32 noundef 0)
  br label %100

43:                                               ; preds = %8
  %44 = load i32, ptr @hf_extended_diuc_dependent_ie_phymod_dl, align 4
  %45 = tail call ptr @proto_tree_add_item(ptr noundef %0, i32 noundef %44, ptr noundef %2, i32 noundef %12, i32 noundef %18, i32 noundef 0)
  br label %100

46:                                               ; preds = %8
  %47 = load i32, ptr @hf_extended_diuc_dependent_ie_dl_pusc_burst_allocation, align 4
  %48 = tail call ptr @proto_tree_add_item(ptr noundef %0, i32 noundef %47, ptr noundef %2, i32 noundef %12, i32 noundef %18, i32 noundef 0)
  br label %100

49:                                               ; preds = %8
  %50 = load i32, ptr @hf_extended_diuc_dependent_ie_ul_interference_and_noise_level, align 4
  %51 = tail call ptr @proto_tree_add_item(ptr noundef %0, i32 noundef %50, ptr noundef %2, i32 noundef %12, i32 noundef %18, i32 noundef 0)
  br label %100

52:                                               ; preds = %8
  %53 = load i32, ptr @hf_extended_diuc_dependent_ie_unknown_diuc, align 4
  %54 = tail call ptr @proto_tree_add_item(ptr noundef %0, i32 noundef %53, ptr noundef %2, i32 noundef %12, i32 noundef %18, i32 noundef 0)
  br label %100

55:                                               ; preds = %5
  %56 = zext i8 %6 to i32
  %57 = lshr i32 %56, 4
  %58 = and i32 %56, 15
  %59 = load i32, ptr @hf_extended_diuc_dependent_ie_diuc, align 4
  %60 = tail call ptr @proto_tree_add_item(ptr noundef %0, i32 noundef %59, ptr noundef %2, i32 noundef %3, i32 noundef 1, i32 noundef 0)
  %61 = load i32, ptr @hf_extended_diuc_dependent_ie_length_1, align 4
  %62 = tail call ptr @proto_tree_add_item(ptr noundef %0, i32 noundef %61, ptr noundef %2, i32 noundef %3, i32 noundef 1, i32 noundef 0)
  %63 = add i32 %3, 1
  switch i32 %57, label %97 [
    i32 0, label %64
    i32 1, label %67
    i32 2, label %70
    i32 3, label %73
    i32 4, label %76
    i32 5, label %79
    i32 6, label %82
    i32 7, label %85
    i32 8, label %88
    i32 11, label %91
    i32 15, label %94
  ]

64:                                               ; preds = %55
  %65 = load i32, ptr @hf_extended_diuc_dependent_ie_channel_measurement, align 4
  %66 = tail call ptr @proto_tree_add_item(ptr noundef %0, i32 noundef %65, ptr noundef %2, i32 noundef %63, i32 noundef %58, i32 noundef 0)
  br label %100

67:                                               ; preds = %55
  %68 = load i32, ptr @hf_extended_diuc_dependent_ie_stc_zone, align 4
  %69 = tail call ptr @proto_tree_add_item(ptr noundef %0, i32 noundef %68, ptr noundef %2, i32 noundef %63, i32 noundef %58, i32 noundef 0)
  br label %100

70:                                               ; preds = %55
  %71 = load i32, ptr @hf_extended_diuc_dependent_ie_aas_dl, align 4
  %72 = tail call ptr @proto_tree_add_item(ptr noundef %0, i32 noundef %71, ptr noundef %2, i32 noundef %63, i32 noundef %58, i32 noundef 0)
  br label %100

73:                                               ; preds = %55
  %74 = load i32, ptr @hf_extended_diuc_dependent_ie_data_location, align 4
  %75 = tail call ptr @proto_tree_add_item(ptr noundef %0, i32 noundef %74, ptr noundef %2, i32 noundef %63, i32 noundef %58, i32 noundef 0)
  br label %100

76:                                               ; preds = %55
  %77 = load i32, ptr @hf_extended_diuc_dependent_ie_cid_switch, align 4
  %78 = tail call ptr @proto_tree_add_item(ptr noundef %0, i32 noundef %77, ptr noundef %2, i32 noundef %63, i32 noundef %58, i32 noundef 0)
  br label %100

79:                                               ; preds = %55
  %80 = load i32, ptr @hf_extended_diuc_dependent_ie_mimo_dl_basic, align 4
  %81 = tail call ptr @proto_tree_add_item(ptr noundef %0, i32 noundef %80, ptr noundef %2, i32 noundef %63, i32 noundef %58, i32 noundef 0)
  br label %100

82:                                               ; preds = %55
  %83 = load i32, ptr @hf_extended_diuc_dependent_ie_mimo_dl_enhanced, align 4
  %84 = tail call ptr @proto_tree_add_item(ptr noundef %0, i32 noundef %83, ptr noundef %2, i32 noundef %63, i32 noundef %58, i32 noundef 0)
  br label %100

85:                                               ; preds = %55
  %86 = load i32, ptr @hf_extended_diuc_dependent_ie_harq_map_pointer, align 4
  %87 = tail call ptr @proto_tree_add_item(ptr noundef %0, i32 noundef %86, ptr noundef %2, i32 noundef %63, i32 noundef %58, i32 noundef 0)
  br label %100

88:                                               ; preds = %55
  %89 = load i32, ptr @hf_extended_diuc_dependent_ie_phymod_dl, align 4
  %90 = tail call ptr @proto_tree_add_item(ptr noundef %0, i32 noundef %89, ptr noundef %2, i32 noundef %63, i32 noundef %58, i32 noundef 0)
  br label %100

91:                                               ; preds = %55
  %92 = load i32, ptr @hf_extended_diuc_dependent_ie_dl_pusc_burst_allocation, align 4
  %93 = tail call ptr @proto_tree_add_item(ptr noundef %0, i32 noundef %92, ptr noundef %2, i32 noundef %63, i32 noundef %58, i32 noundef 0)
  br label %100

94:                                               ; preds = %55
  %95 = load i32, ptr @hf_extended_diuc_dependent_ie_ul_interference_and_noise_level, align 4
  %96 = tail call ptr @proto_tree_add_item(ptr noundef %0, i32 noundef %95, ptr noundef %2, i32 noundef %63, i32 noundef %58, i32 noundef 0)
  br label %100

97:                                               ; preds = %55
  %98 = load i32, ptr @hf_extended_diuc_dependent_ie_unknown_diuc, align 4
  %99 = tail call ptr @proto_tree_add_item(ptr noundef %0, i32 noundef %98, ptr noundef %2, i32 noundef %63, i32 noundef %58, i32 noundef 0)
  br label %100

100:                                              ; preds = %64, %67, %70, %73, %76, %79, %82, %85, %88, %91, %94, %97, %19, %22, %25, %28, %31, %34, %37, %40, %43, %46, %49, %52
  %.0 = phi i32 [ %15, %52 ], [ %15, %49 ], [ %15, %46 ], [ %15, %43 ], [ %15, %40 ], [ %15, %37 ], [ %15, %34 ], [ %15, %31 ], [ %15, %28 ], [ %15, %25 ], [ %15, %22 ], [ %15, %19 ], [ %58, %97 ], [ %58, %94 ], [ %58, %91 ], [ %58, %88 ], [ %58, %85 ], [ %58, %82 ], [ %58, %79 ], [ %58, %76 ], [ %58, %73 ], [ %58, %70 ], [ %58, %67 ], [ %58, %64 ]
  %101 = shl nuw nsw i32 %.0, 1
  %102 = add nuw nsw i32 %101, 2
  ret i32 %102
}